Certificate:
    Data:
        Version: 3 (0x2)
        Serial Number: 0 (0x0)
        Signature Algorithm: ecdsa-with-SHA256
        Issuer: O=Created by Generate-Certs, OU=Created by Generate-Certs, CN=Generate-Certs Root CA
        Validity
            Not Before: Feb 23 20:39:38 2021 GMT
            Not After : Feb 21 20:39:38 2031 GMT
        Subject: O=Created by Generate-Certs, OU=Created by Generate-Certs, CN=Generate-Certs Root CA
        Subject Public Key Info:
            Public Key Algorithm: id-ecPublicKey
                Public-Key: (256 bit)
                pub:
                    04:3e:b0:4c:fe:d2:82:72:b0:53:26:d7:b4:39:00:
                    b5:64:e7:bc:be:93:38:97:b6:a9:b6:e8:6b:9a:5d:
                    ac:e8:05:bf:51:67:f6:f8:ff:a5:c2:23:f8:92:f5:
                    1a:57:d6:81:69:fa:b1:6a:6c:f9:7f:17:e4:91:a8:
                    8d:ad:b2:15:93
                ASN1 OID: prime256v1
                NIST CURVE: P-256
        X509v3 extensions:
            X509v3 Basic Constraints: critical
                CA:TRUE
            X509v3 Key Usage: 
                Digital Signature, Non Repudiation, Key Encipherment, Certificate Sign, CRL Sign
            X509v3 Subject Key Identifier: 
                2E:5E:6C:60:E6:F8:42:B7:B5:EA:AE:DE:3A:98:F9:13:C9:59:F2:6F
    Signature Algorithm: ecdsa-with-SHA256
         30:45:02:21:00:c6:70:a0:b2:99:4d:22:f6:ea:6f:bb:59:eb:
         29:33:f4:21:f2:0c:42:1a:50:a6:64:4d:e4:81:aa:72:72:2c:
         55:02:20:36:01:4e:01:0b:cc:b8:c4:01:9c:19:a7:f6:c1:d1:
         a3:86:0f:c6:7e:7d:0b:08:97:7c:86:8e:11:36:a9:6f:2a
-----BEGIN CERTIFICATE-----
MIICADCCAaagAwIBAgIBADAKBggqhkjOPQQDAjBpMSIwIAYDVQQKDBlDcmVhdGVk
IGJ5IEdlbmVyYXRlLUNlcnRzMSIwIAYDVQQLDBlDcmVhdGVkIGJ5IEdlbmVyYXRl
LUNlcnRzMR8wHQYDVQQDDBZHZW5lcmF0ZS1DZXJ0cyBSb290IENBMB4XDTIxMDIy
MzIwMzkzOFoXDTMxMDIyMTIwMzkzOFowaTEiMCAGA1UECgwZQ3JlYXRlZCBieSBH
ZW5lcmF0ZS1DZXJ0czEiMCAGA1UECwwZQ3JlYXRlZCBieSBHZW5lcmF0ZS1DZXJ0
czEfMB0GA1UEAwwWR2VuZXJhdGUtQ2VydHMgUm9vdCBDQTBZMBMGByqGSM49AgEG
CCqGSM49AwEHA0IABD6wTP7SgnKwUybXtDkAtWTnvL6TOJe2qbboa5pdrOgFv1Fn
9vj/pcIj+JL1GlfWgWn6sWps+X8X5JGoja2yFZOjPzA9MA8GA1UdEwEB/wQFMAMB
Af8wCwYDVR0PBAQDAgHmMB0GA1UdDgQWBBQuXmxg5vhCt7Xqrt46mPkTyVnybzAK
BggqhkjOPQQDAgNIADBFAiEAxnCgsplNIvbqb7tZ6ykz9CHyDEIaUKZkTeSBqnJy
LFUCIDYBTgELzLjEAZwZp/bB0aOGD8Z+fQsIl3yGjhE2qW8q
-----END CERTIFICATE-----
